target datalayout = "e-m:e-p270:32:32-p271:32:32-p272:64:64-i64:64-i128:128-f80:128-n8:16:32:64-S128"
target triple = "x86_64-pc-linux-gnu"

%class.mpfx_manager = type <{ i32, i32, i32, [4 x i8], %class.svector, i32, i8, [3 x i8], %class.id_gen, %class.svector, %class.svector, %class.svector, %class.svector, %class.mpfx, [4 x i8] }>
%class.id_gen = type { i32, %class.svector }
%class.svector = type { %class.vector }
%class.vector = type { ptr }
%class.mpfx = type { i32 }

; Function Attrs: mustprogress nounwind uwtable
define hidden noundef i32 @_ZNK12mpfx_manager2szEPj(ptr noundef nonnull align 8 dereferenceable(85) %0, ptr noundef %1) #5 align 2 {
  %3 = alloca ptr, align 8
  %4 = alloca ptr, align 8
  %5 = alloca i32, align 4
  store ptr %0, ptr %3, align 8, !tbaa !3
  store ptr %1, ptr %4, align 8, !tbaa !35
  %6 = load ptr, ptr %3, align 8
  call void @llvm.lifetime.start.p0(i64 4, ptr %5) #3
  %7 = getelementptr inbounds nuw %class.mpfx_manager, ptr %6, i32 0, i32 2
  %8 = load i32, ptr %7, align 8, !tbaa !20
  store i32 %8, ptr %5, align 4, !tbaa !8
  br label %9

9:                                                ; preds = %22, %2
  br label %10

10:                                               ; preds = %9
  %11 = load i32, ptr %5, align 4, !tbaa !8
  %12 = add i32 %11, -1
  store i32 %12, ptr %5, align 4, !tbaa !8
  %13 = load ptr, ptr %4, align 8, !tbaa !35
  %14 = load i32, ptr %5, align 4, !tbaa !8
  %15 = zext i32 %14 to i64
  %16 = getelementptr inbounds nuw i32, ptr %13, i64 %15
  %17 = load i32, ptr %16, align 4, !tbaa !8
  %18 = icmp ne i32 %17, 0
  br i1 %18, label %19, label %22

19:                                               ; preds = %10
  %20 = load i32, ptr %5, align 4, !tbaa !8
  %21 = add i32 %20, 1
  call void @llvm.lifetime.end.p0(i64 4, ptr %5) #3
  ret i32 %21

22:                                               ; preds = %10
  br label %9, !llvm.loop !39
}