; Function Attrs: mustprogress nofree norecurse nosync nounwind willreturn memory(argmem: read) uwtable
define hidden noundef i32 @_ZNK12mpfx_manager2szEPj(ptr noundef nonnull readonly align 8 captures(none) dereferenceable(85) %0, ptr noundef readonly captures(none) %1) local_unnamed_addr #9 align 2 {
  %3 = getelementptr inbounds nuw i8, ptr %0, i64 8
  %4 = load i32, ptr %3, align 8, !tbaa !19
  br label %5

5:                                                ; preds = %5, %2
  %.0 = phi i32 [ %4, %2 ], [ %6, %5 ]
  %6 = add i32 %.0, -1
  %7 = zext i32 %6 to i64
  %8 = getelementptr inbounds nuw i32, ptr %1, i64 %7
  %9 = load i32, ptr %8, align 4, !tbaa !22
  %.not = icmp eq i32 %9, 0
  br i1 %.not, label %5, label %10, !llvm.loop !38

10:                                               ; preds = %5
  ret i32 %.0
}